target datalayout = "e-m:e-p270:32:32-p271:32:32-p272:64:64-i64:64-i128:128-f80:128-n8:16:32:64-S128"
target triple = "x86_64-pc-linux-gnu"

%"class.rocksdb::(anonymous namespace)::MockSequentialFile" = type { %"class.rocksdb::FSSequentialFile", ptr, i8, i8, i64 }
%"class.rocksdb::FSSequentialFile" = type { ptr }

; Function Attrs: mustprogress nounwind uwtable
define linkonce_odr void @_ZN7rocksdb16FSSequentialFileD2Ev(ptr noundef nonnull align 8 dereferenceable(8) %0) unnamed_addr #2 comdat align 2 {
  %2 = alloca ptr, align 8
  store ptr %0, ptr %2, align 8, !tbaa !185
  ret void
}

; Function Attrs: mustprogress nounwind uwtable
define internal void @_ZN7rocksdb12_GLOBAL__N_118MockSequentialFileD2Ev(ptr noundef nonnull align 8 dereferenceable(32) %0) unnamed_addr #2 align 2 personality ptr @__gxx_personality_v0 {
  %2 = alloca ptr, align 8
  store ptr %0, ptr %2, align 8, !tbaa !187
  %3 = load ptr, ptr %2, align 8
  store ptr getelementptr inbounds inrange(-16, 72) ({ [11 x ptr] }, ptr @_ZTVN7rocksdb12_GLOBAL__N_118MockSequentialFileE, i32 0, i32 0, i32 2), ptr %3, align 8, !tbaa !75
  %4 = getelementptr inbounds nuw %"class.rocksdb::(anonymous namespace)::MockSequentialFile", ptr %3, i32 0, i32 1
  %5 = load ptr, ptr %4, align 8, !tbaa !189
  invoke void @_ZN7rocksdb7MemFile5UnrefEv(ptr noundef nonnull align 8 dereferenceable(152) %5)
          to label %6 unwind label %7

6:                                                ; preds = %1
  call void @_ZN7rocksdb16FSSequentialFileD2Ev(ptr noundef nonnull align 8 dereferenceable(8) %3) #5
  ret void

7:                                                ; preds = %1
  %8 = landingpad { ptr, i32 }
          catch ptr null
  %9 = extractvalue { ptr, i32 } %8, 0
  call void @__clang_call_terminate(ptr %9) #23
  unreachable
}

; Function Attrs: mustprogress nounwind uwtable
define internal void @_ZN7rocksdb12_GLOBAL__N_118MockSequentialFileD0Ev(ptr noundef nonnull align 8 dereferenceable(32) %0) unnamed_addr #2 align 2 {
  %2 = alloca ptr, align 8
  store ptr %0, ptr %2, align 8, !tbaa !187
  %3 = load ptr, ptr %2, align 8
  call void @_ZN7rocksdb12_GLOBAL__N_118MockSequentialFileD2Ev(ptr noundef nonnull align 8 dereferenceable(32) %3) #5
  call void @_ZdlPvm(ptr noundef %3, i64 noundef 32) #24
  ret void
}