; Function Attrs: mustprogress nounwind uwtable
define internal void @_ZN7rocksdb12_GLOBAL__N_118MockSequentialFileD0Ev(ptr noundef nonnull align 8 dereferenceable(32) initializes((0, 8)) %0) unnamed_addr #5 align 2 personality ptr @__gxx_personality_v0 {
  store ptr getelementptr inbounds nuw inrange(-16, 72) (i8, ptr @_ZTVN7rocksdb12_GLOBAL__N_118MockSequentialFileE, i64 16), ptr %0, align 8, !tbaa !46
  %2 = getelementptr inbounds nuw i8, ptr %0, i64 8
  %3 = load ptr, ptr %2, align 8, !tbaa !166
  invoke void @_ZN7rocksdb7MemFile5UnrefEv(ptr noundef nonnull align 8 dereferenceable(152) %3)
          to label %_ZN7rocksdb12_GLOBAL__N_118MockSequentialFileD2Ev.exit unwind label %4

4:                                                ; preds = %1
  %5 = landingpad { ptr, i32 }
          catch ptr null
  %6 = extractvalue { ptr, i32 } %5, 0
  tail call void @__clang_call_terminate(ptr %6) #31
  unreachable

_ZN7rocksdb12_GLOBAL__N_118MockSequentialFileD2Ev.exit: ; preds = %1
  tail call void @_ZdlPvm(ptr noundef nonnull %0, i64 noundef 32) #33
  ret void
}